target datalayout = "e-m:e-p270:32:32-p271:32:32-p272:64:64-i64:64-i128:128-f80:128-n8:16:32:64-S128"
target triple = "x86_64-pc-linux-gnu"

; Function Attrs: nounwind uwtable
define hidden i32 @OGLSD_NextPowerOfTwo(i32 noundef %0, i32 noundef %1) #0 {
  %3 = alloca i32, align 4
  %4 = alloca i32, align 4
  %5 = alloca i32, align 4
  %6 = alloca i32, align 4
  store i32 %0, ptr %4, align 4
  store i32 %1, ptr %5, align 4
  %7 = load i32, ptr %4, align 4
  %8 = load i32, ptr %5, align 4
  %9 = icmp sgt i32 %7, %8
  br i1 %9, label %10, label %11

10:                                               ; preds = %2
  store i32 0, ptr %3, align 4
  br label %22

11:                                               ; preds = %2
  store i32 1, ptr %6, align 4
  br label %12

12:                                               ; preds = %17, %11
  %13 = load i32, ptr %6, align 4
  %14 = load i32, ptr %4, align 4
  %15 = icmp slt i32 %13, %14
  br i1 %15, label %16, label %20

16:                                               ; preds = %12
  br label %17

17:                                               ; preds = %16
  %18 = load i32, ptr %6, align 4
  %19 = mul nsw i32 %18, 2
  store i32 %19, ptr %6, align 4
  br label %12, !llvm.loop !6

20:                                               ; preds = %12
  %21 = load i32, ptr %6, align 4
  store i32 %21, ptr %3, align 4
  br label %22

22:                                               ; preds = %20, %10
  %23 = load i32, ptr %3, align 4
  ret i32 %23
}