; Function Attrs: nofree norecurse nosync nounwind memory(none) uwtable
define hidden i32 @OGLSD_NextPowerOfTwo(i32 noundef %0, i32 noundef %1) local_unnamed_addr #0 {
  %3 = icmp sgt i32 %0, %1
  br i1 %3, label %.loopexit, label %.preheader

.preheader:                                       ; preds = %2, %.preheader
  %.0 = phi i32 [ %5, %.preheader ], [ 1, %2 ]
  %4 = icmp slt i32 %.0, %0
  %5 = shl nsw i32 %.0, 1
  br i1 %4, label %.preheader, label %.loopexit, !llvm.loop !6

.loopexit:                                        ; preds = %.preheader, %2
  %.07 = phi i32 [ 0, %2 ], [ %.0, %.preheader ]
  ret i32 %.07
}